target datalayout = "e-m:e-p270:32:32-p271:32:32-p272:64:64-i64:64-i128:128-f80:128-n8:16:32:64-S128"
target triple = "x86_64-pc-linux-gnu"

%"class.cvc5::internal::FatalStream" = type { i8 }

@.str = private unnamed_addr constant [2 x i8] c"?\00", align 1
@.str.1 = private unnamed_addr constant [9 x i8] c"STANDARD\00", align 1
@.str.2 = private unnamed_addr constant [12 x i8] c"STANDARD_MV\00", align 1
@.str.3 = private unnamed_addr constant [5 x i8] c"FULL\00", align 1
@__PRETTY_FUNCTION__._ZN4cvc58internal6theory11quantifierslsERSoNS2_13CegInstEffortE = private unnamed_addr constant [93 x i8] c"std::ostream &cvc5::internal::theory::quantifiers::operator<<(std::ostream &, CegInstEffort)\00", align 1
@.str.4 = private unnamed_addr constant [130 x i8] c"generated/home/dtcxzyw/WorkSpace/Projects/compilers/llvm-opt-benchmark/bench/cvc5/cvc5/src/theory/quantifiers/cegqi/ceg_utils.cpp\00", align 1
@.str.5 = private unnamed_addr constant [26 x i8] c"Unreachable code reached \00", align 1

; Function Attrs: mustprogress uwtable
define hidden noundef nonnull align 8 dereferenceable(8) ptr @_ZN4cvc58internal6theory11quantifierslsERSoNS2_13CegInstEffortE(ptr noundef nonnull align 8 dereferenceable(8) %0, i32 noundef %1) #5 personality ptr @__gxx_personality_v0 {
  %3 = alloca ptr, align 8
  %4 = alloca i32, align 4
  %5 = alloca %"class.cvc5::internal::FatalStream", align 1
  %6 = alloca ptr, align 8
  %7 = alloca i32, align 4
  store ptr %0, ptr %3, align 8, !tbaa !7
  store i32 %1, ptr %4, align 4, !tbaa !10
  %8 = load i32, ptr %4, align 4, !tbaa !10
  switch i32 %8, label %21 [
    i32 0, label %9
    i32 1, label %12
    i32 2, label %15
    i32 3, label %18
  ]

9:                                                ; preds = %2
  %10 = load ptr, ptr %3, align 8, !tbaa !7
  %11 = call noundef nonnull align 8 dereferenceable(8) ptr @_ZStlsISt11char_traitsIcEERSt13basic_ostreamIcT_ES5_PKc(ptr noundef nonnull align 8 dereferenceable(8) %10, ptr noundef @.str)
  br label %31

12:                                               ; preds = %2
  %13 = load ptr, ptr %3, align 8, !tbaa !7
  %14 = call noundef nonnull align 8 dereferenceable(8) ptr @_ZStlsISt11char_traitsIcEERSt13basic_ostreamIcT_ES5_PKc(ptr noundef nonnull align 8 dereferenceable(8) %13, ptr noundef @.str.1)
  br label %31

15:                                               ; preds = %2
  %16 = load ptr, ptr %3, align 8, !tbaa !7
  %17 = call noundef nonnull align 8 dereferenceable(8) ptr @_ZStlsISt11char_traitsIcEERSt13basic_ostreamIcT_ES5_PKc(ptr noundef nonnull align 8 dereferenceable(8) %16, ptr noundef @.str.2)
  br label %31

18:                                               ; preds = %2
  %19 = load ptr, ptr %3, align 8, !tbaa !7
  %20 = call noundef nonnull align 8 dereferenceable(8) ptr @_ZStlsISt11char_traitsIcEERSt13basic_ostreamIcT_ES5_PKc(ptr noundef nonnull align 8 dereferenceable(8) %19, ptr noundef @.str.3)
  br label %31

21:                                               ; preds = %2
  call void @llvm.lifetime.start.p0(i64 1, ptr %5) #3
  call void @_ZN4cvc58internal11FatalStreamC1EPKcS3_i(ptr noundef nonnull align 1 dereferenceable(1) %5, ptr noundef @__PRETTY_FUNCTION__._ZN4cvc58internal6theory11quantifierslsERSoNS2_13CegInstEffortE, ptr noundef @.str.4, i32 noundef 82)
  %22 = invoke noundef nonnull align 8 dereferenceable(8) ptr @_ZN4cvc58internal11FatalStream6streamEv(ptr noundef nonnull align 1 dereferenceable(1) %5)
          to label %23 unwind label %26

23:                                               ; preds = %21
  %24 = invoke noundef nonnull align 8 dereferenceable(8) ptr @_ZStlsISt11char_traitsIcEERSt13basic_ostreamIcT_ES5_PKc(ptr noundef nonnull align 8 dereferenceable(8) %22, ptr noundef @.str.5)
          to label %25 unwind label %26

25:                                               ; preds = %23
  call void @_ZN4cvc58internal11FatalStreamD1Ev(ptr noundef nonnull align 1 dereferenceable(1) %5) #15
  unreachable

26:                                               ; preds = %23, %21
  %27 = landingpad { ptr, i32 }
          cleanup
  %28 = extractvalue { ptr, i32 } %27, 0
  store ptr %28, ptr %6, align 8
  %29 = extractvalue { ptr, i32 } %27, 1
  store i32 %29, ptr %7, align 4
  call void @_ZN4cvc58internal11FatalStreamD1Ev(ptr noundef nonnull align 1 dereferenceable(1) %5) #15
  unreachable

30:                                               ; No predecessors!
  call void @llvm.lifetime.end.p0(i64 1, ptr %5) #3
  br label %33

31:                                               ; preds = %18, %15, %12, %9
  %32 = load ptr, ptr %3, align 8, !tbaa !7
  ret ptr %32

33:                                               ; preds = %30
  %34 = load ptr, ptr %6, align 8
  %35 = load i32, ptr %7, align 4
  %36 = insertvalue { ptr, i32 } poison, ptr %34, 0
  %37 = insertvalue { ptr, i32 } %36, i32 %35, 1
  resume { ptr, i32 } %37
}